target datalayout = "e-m:e-p270:32:32-p271:32:32-p272:64:64-i64:64-i128:128-f80:128-n8:16:32:64-S128"
target triple = "x86_64-pc-linux-gnu"

%struct.global_State = type { ptr, ptr, i64, i64, i64, i64, %struct.stringtable, %struct.TValue, %struct.TValue, i32, [6 x i8], i8, i8, i8, i8, i8, i8, ptr, ptr, ptr, ptr, ptr, ptr, ptr, ptr, ptr, ptr, ptr, ptr, ptr, ptr, ptr, ptr, ptr, ptr, ptr, ptr, ptr, [25 x ptr], [9 x ptr], [53 x [2 x ptr]], ptr, ptr }
%struct.stringtable = type { ptr, i32, i32 }
%struct.TValue = type { %union.Value, i8 }
%union.Value = type { ptr }
%struct.lua_State = type { ptr, i8, i8, i8, i8, i16, %union.StkIdRel, ptr, ptr, %union.StkIdRel, %union.StkIdRel, ptr, %union.StkIdRel, ptr, ptr, ptr, %struct.CallInfo, ptr, i64, i32, i32, i32, i32, i32, %struct.anon.2 }
%union.StkIdRel = type { ptr }
%struct.CallInfo = type { %union.StkIdRel, %union.StkIdRel, ptr, ptr, %union.anon, %union.anon.1, i32 }
%union.anon = type { %struct.anon.0 }
%struct.anon.0 = type { ptr, i64, i64 }
%union.anon.1 = type { i32 }
%struct.anon.2 = type { i32, i32 }
%struct.LG = type { %struct.LX, %struct.global_State }
%struct.LX = type { [8 x i8], %struct.lua_State }

; Function Attrs: nounwind uwtable
define internal void @preinit_thread(ptr noundef %0, ptr noundef %1) #0 {
  %3 = alloca ptr, align 8
  %4 = alloca ptr, align 8
  store ptr %0, ptr %3, align 8, !tbaa !22
  store ptr %1, ptr %4, align 8, !tbaa !4
  %5 = load ptr, ptr %4, align 8, !tbaa !4
  %6 = load ptr, ptr %3, align 8, !tbaa !22
  %7 = getelementptr inbounds nuw %struct.lua_State, ptr %6, i32 0, i32 7
  store ptr %5, ptr %7, align 8, !tbaa !37
  %8 = load ptr, ptr %3, align 8, !tbaa !22
  %9 = getelementptr inbounds nuw %struct.lua_State, ptr %8, i32 0, i32 10
  store ptr null, ptr %9, align 8, !tbaa !34
  %10 = load ptr, ptr %3, align 8, !tbaa !22
  %11 = getelementptr inbounds nuw %struct.lua_State, ptr %10, i32 0, i32 8
  store ptr null, ptr %11, align 8, !tbaa !25
  %12 = load ptr, ptr %3, align 8, !tbaa !22
  %13 = getelementptr inbounds nuw %struct.lua_State, ptr %12, i32 0, i32 5
  store i16 0, ptr %13, align 4, !tbaa !35
  %14 = load ptr, ptr %3, align 8, !tbaa !22
  %15 = load ptr, ptr %3, align 8, !tbaa !22
  %16 = getelementptr inbounds nuw %struct.lua_State, ptr %15, i32 0, i32 14
  store ptr %14, ptr %16, align 8, !tbaa !47
  %17 = load ptr, ptr %3, align 8, !tbaa !22
  %18 = getelementptr inbounds nuw %struct.lua_State, ptr %17, i32 0, i32 19
  store i32 0, ptr %18, align 8, !tbaa !36
  %19 = load ptr, ptr %3, align 8, !tbaa !22
  %20 = getelementptr inbounds nuw %struct.lua_State, ptr %19, i32 0, i32 15
  store ptr null, ptr %20, align 8, !tbaa !48
  %21 = load ptr, ptr %3, align 8, !tbaa !22
  %22 = getelementptr inbounds nuw %struct.lua_State, ptr %21, i32 0, i32 17
  store volatile ptr null, ptr %22, align 8, !tbaa !44
  %23 = load ptr, ptr %3, align 8, !tbaa !22
  %24 = getelementptr inbounds nuw %struct.lua_State, ptr %23, i32 0, i32 23
  store volatile i32 0, ptr %24, align 8, !tbaa !42
  %25 = load ptr, ptr %3, align 8, !tbaa !22
  %26 = getelementptr inbounds nuw %struct.lua_State, ptr %25, i32 0, i32 21
  store i32 0, ptr %26, align 8, !tbaa !43
  %27 = load ptr, ptr %3, align 8, !tbaa !22
  %28 = getelementptr inbounds nuw %struct.lua_State, ptr %27, i32 0, i32 4
  store i8 1, ptr %28, align 1, !tbaa !49
  %29 = load ptr, ptr %3, align 8, !tbaa !22
  %30 = getelementptr inbounds nuw %struct.lua_State, ptr %29, i32 0, i32 21
  %31 = load i32, ptr %30, align 8, !tbaa !43
  %32 = load ptr, ptr %3, align 8, !tbaa !22
  %33 = getelementptr inbounds nuw %struct.lua_State, ptr %32, i32 0, i32 22
  store i32 %31, ptr %33, align 4, !tbaa !45
  %34 = load ptr, ptr %3, align 8, !tbaa !22
  %35 = getelementptr inbounds nuw %struct.lua_State, ptr %34, i32 0, i32 11
  store ptr null, ptr %35, align 8, !tbaa !50
  %36 = load ptr, ptr %3, align 8, !tbaa !22
  %37 = getelementptr inbounds nuw %struct.lua_State, ptr %36, i32 0, i32 3
  store i8 0, ptr %37, align 2, !tbaa !51
  %38 = load ptr, ptr %3, align 8, !tbaa !22
  %39 = getelementptr inbounds nuw %struct.lua_State, ptr %38, i32 0, i32 18
  store i64 0, ptr %39, align 8, !tbaa !52
  %40 = load ptr, ptr %3, align 8, !tbaa !22
  %41 = getelementptr inbounds nuw %struct.lua_State, ptr %40, i32 0, i32 20
  store i32 0, ptr %41, align 4, !tbaa !53
  ret void
}

; Function Attrs: nounwind uwtable
define dso_local ptr @lua_newstate(ptr noundef %0, ptr noundef %1, i32 noundef %2) #0 {
  %4 = alloca ptr, align 8
  %5 = alloca ptr, align 8
  %6 = alloca ptr, align 8
  %7 = alloca i32, align 4
  %8 = alloca i32, align 4
  %9 = alloca ptr, align 8
  %10 = alloca ptr, align 8
  %11 = alloca ptr, align 8
  %12 = alloca i32, align 4
  %13 = alloca ptr, align 8
  store ptr %0, ptr %5, align 8, !tbaa !58
  store ptr %1, ptr %6, align 8, !tbaa !58
  store i32 %2, ptr %7, align 4, !tbaa !54
  call void @llvm.lifetime.start.p0(i64 4, ptr %8) #6
  call void @llvm.lifetime.start.p0(i64 8, ptr %9) #6
  call void @llvm.lifetime.start.p0(i64 8, ptr %10) #6
  call void @llvm.lifetime.start.p0(i64 8, ptr %11) #6
  %14 = load ptr, ptr %5, align 8, !tbaa !58
  %15 = load ptr, ptr %6, align 8, !tbaa !58
  %16 = call ptr %14(ptr noundef %15, ptr noundef null, i64 noundef 8, i64 noundef 1632)
  store ptr %16, ptr %11, align 8, !tbaa !59
  %17 = load ptr, ptr %11, align 8, !tbaa !59
  %18 = icmp eq ptr %17, null
  br i1 %18, label %19, label %20

19:                                               ; preds = %3
  store ptr null, ptr %4, align 8
  store i32 1, ptr %12, align 4
  br label %179

20:                                               ; preds = %3
  %21 = load ptr, ptr %11, align 8, !tbaa !59
  %22 = getelementptr inbounds nuw %struct.LG, ptr %21, i32 0, i32 0
  %23 = getelementptr inbounds nuw %struct.LX, ptr %22, i32 0, i32 1
  store ptr %23, ptr %9, align 8, !tbaa !22
  %24 = load ptr, ptr %11, align 8, !tbaa !59
  %25 = getelementptr inbounds nuw %struct.LG, ptr %24, i32 0, i32 1
  store ptr %25, ptr %10, align 8, !tbaa !4
  %26 = load ptr, ptr %9, align 8, !tbaa !22
  %27 = getelementptr inbounds nuw %struct.lua_State, ptr %26, i32 0, i32 1
  store i8 8, ptr %27, align 8, !tbaa !61
  %28 = load ptr, ptr %10, align 8, !tbaa !4
  %29 = getelementptr inbounds nuw %struct.global_State, ptr %28, i32 0, i32 11
  store i8 8, ptr %29, align 2, !tbaa !62
  %30 = load ptr, ptr %10, align 8, !tbaa !4
  %31 = getelementptr inbounds nuw %struct.global_State, ptr %30, i32 0, i32 11
  %32 = load i8, ptr %31, align 2, !tbaa !62
  %33 = zext i8 %32 to i32
  %34 = and i32 %33, 24
  %35 = trunc i32 %34 to i8
  %36 = load ptr, ptr %9, align 8, !tbaa !22
  %37 = getelementptr inbounds nuw %struct.lua_State, ptr %36, i32 0, i32 2
  store i8 %35, ptr %37, align 1, !tbaa !63
  %38 = load ptr, ptr %9, align 8, !tbaa !22
  %39 = load ptr, ptr %10, align 8, !tbaa !4
  call void @preinit_thread(ptr noundef %38, ptr noundef %39)
  %40 = load ptr, ptr %9, align 8, !tbaa !22
  %41 = load ptr, ptr %10, align 8, !tbaa !4
  %42 = getelementptr inbounds nuw %struct.global_State, ptr %41, i32 0, i32 17
  store ptr %40, ptr %42, align 8, !tbaa !64
  %43 = load ptr, ptr %9, align 8, !tbaa !22
  %44 = getelementptr inbounds nuw %struct.lua_State, ptr %43, i32 0, i32 0
  store ptr null, ptr %44, align 8, !tbaa !65
  %45 = load ptr, ptr %9, align 8, !tbaa !22
  %46 = getelementptr inbounds nuw %struct.lua_State, ptr %45, i32 0, i32 19
  %47 = load i32, ptr %46, align 8, !tbaa !36
  %48 = add i32 %47, 65536
  store i32 %48, ptr %46, align 8, !tbaa !36
  %49 = load ptr, ptr %5, align 8, !tbaa !58
  %50 = load ptr, ptr %10, align 8, !tbaa !4
  %51 = getelementptr inbounds nuw %struct.global_State, ptr %50, i32 0, i32 0
  store ptr %49, ptr %51, align 8, !tbaa !66
  %52 = load ptr, ptr %6, align 8, !tbaa !58
  %53 = load ptr, ptr %10, align 8, !tbaa !4
  %54 = getelementptr inbounds nuw %struct.global_State, ptr %53, i32 0, i32 1
  store ptr %52, ptr %54, align 8, !tbaa !67
  %55 = load ptr, ptr %10, align 8, !tbaa !4
  %56 = getelementptr inbounds nuw %struct.global_State, ptr %55, i32 0, i32 41
  store ptr null, ptr %56, align 8, !tbaa !68
  %57 = load ptr, ptr %10, align 8, !tbaa !4
  %58 = getelementptr inbounds nuw %struct.global_State, ptr %57, i32 0, i32 42
  store ptr null, ptr %58, align 8, !tbaa !69
  %59 = load ptr, ptr %9, align 8, !tbaa !22
  %60 = load ptr, ptr %10, align 8, !tbaa !4
  %61 = getelementptr inbounds nuw %struct.global_State, ptr %60, i32 0, i32 36
  store ptr %59, ptr %61, align 8, !tbaa !46
  %62 = load i32, ptr %7, align 4, !tbaa !54
  %63 = load ptr, ptr %10, align 8, !tbaa !4
  %64 = getelementptr inbounds nuw %struct.global_State, ptr %63, i32 0, i32 9
  store i32 %62, ptr %64, align 8, !tbaa !70
  %65 = load ptr, ptr %10, align 8, !tbaa !4
  %66 = getelementptr inbounds nuw %struct.global_State, ptr %65, i32 0, i32 15
  store i8 2, ptr %66, align 2, !tbaa !71
  %67 = load ptr, ptr %10, align 8, !tbaa !4
  %68 = getelementptr inbounds nuw %struct.global_State, ptr %67, i32 0, i32 6
  %69 = getelementptr inbounds nuw %struct.stringtable, ptr %68, i32 0, i32 1
  store i32 0, ptr %69, align 8, !tbaa !72
  %70 = load ptr, ptr %10, align 8, !tbaa !4
  %71 = getelementptr inbounds nuw %struct.global_State, ptr %70, i32 0, i32 6
  %72 = getelementptr inbounds nuw %struct.stringtable, ptr %71, i32 0, i32 2
  store i32 0, ptr %72, align 4, !tbaa !73
  %73 = load ptr, ptr %10, align 8, !tbaa !4
  %74 = getelementptr inbounds nuw %struct.global_State, ptr %73, i32 0, i32 6
  %75 = getelementptr inbounds nuw %struct.stringtable, ptr %74, i32 0, i32 0
  store ptr null, ptr %75, align 8, !tbaa !74
  %76 = load ptr, ptr %10, align 8, !tbaa !4
  %77 = getelementptr inbounds nuw %struct.global_State, ptr %76, i32 0, i32 7
  %78 = getelementptr inbounds nuw %struct.TValue, ptr %77, i32 0, i32 1
  store i8 0, ptr %78, align 8, !tbaa !75
  %79 = load ptr, ptr %10, align 8, !tbaa !4
  %80 = getelementptr inbounds nuw %struct.global_State, ptr %79, i32 0, i32 35
  store ptr null, ptr %80, align 8, !tbaa !76
  %81 = load ptr, ptr %10, align 8, !tbaa !4
  %82 = getelementptr inbounds nuw %struct.global_State, ptr %81, i32 0, i32 12
  store i8 8, ptr %82, align 1, !tbaa !77
  %83 = load ptr, ptr %10, align 8, !tbaa !4
  %84 = getelementptr inbounds nuw %struct.global_State, ptr %83, i32 0, i32 13
  store i8 0, ptr %84, align 4, !tbaa !78
  %85 = load ptr, ptr %10, align 8, !tbaa !4
  %86 = getelementptr inbounds nuw %struct.global_State, ptr %85, i32 0, i32 14
  store i8 0, ptr %86, align 1, !tbaa !79
  %87 = load ptr, ptr %10, align 8, !tbaa !4
  %88 = getelementptr inbounds nuw %struct.global_State, ptr %87, i32 0, i32 16
  store i8 0, ptr %88, align 1, !tbaa !80
  %89 = load ptr, ptr %10, align 8, !tbaa !4
  %90 = getelementptr inbounds nuw %struct.global_State, ptr %89, i32 0, i32 26
  store ptr null, ptr %90, align 8, !tbaa !81
  %91 = load ptr, ptr %10, align 8, !tbaa !4
  %92 = getelementptr inbounds nuw %struct.global_State, ptr %91, i32 0, i32 25
  store ptr null, ptr %92, align 8, !tbaa !82
  %93 = load ptr, ptr %10, align 8, !tbaa !4
  %94 = getelementptr inbounds nuw %struct.global_State, ptr %93, i32 0, i32 19
  store ptr null, ptr %94, align 8, !tbaa !83
  %95 = load ptr, ptr %10, align 8, !tbaa !4
  %96 = getelementptr inbounds nuw %struct.global_State, ptr %95, i32 0, i32 29
  store ptr null, ptr %96, align 8, !tbaa !84
  %97 = load ptr, ptr %10, align 8, !tbaa !4
  %98 = getelementptr inbounds nuw %struct.global_State, ptr %97, i32 0, i32 28
  store ptr null, ptr %98, align 8, !tbaa !85
  %99 = load ptr, ptr %10, align 8, !tbaa !4
  %100 = getelementptr inbounds nuw %struct.global_State, ptr %99, i32 0, i32 27
  store ptr null, ptr %100, align 8, !tbaa !86
  %101 = load ptr, ptr %10, align 8, !tbaa !4
  %102 = getelementptr inbounds nuw %struct.global_State, ptr %101, i32 0, i32 30
  store ptr null, ptr %102, align 8, !tbaa !87
  %103 = load ptr, ptr %10, align 8, !tbaa !4
  %104 = getelementptr inbounds nuw %struct.global_State, ptr %103, i32 0, i32 33
  store ptr null, ptr %104, align 8, !tbaa !88
  %105 = load ptr, ptr %10, align 8, !tbaa !4
  %106 = getelementptr inbounds nuw %struct.global_State, ptr %105, i32 0, i32 32
  store ptr null, ptr %106, align 8, !tbaa !89
  %107 = load ptr, ptr %10, align 8, !tbaa !4
  %108 = getelementptr inbounds nuw %struct.global_State, ptr %107, i32 0, i32 31
  store ptr null, ptr %108, align 8, !tbaa !90
  %109 = load ptr, ptr %10, align 8, !tbaa !4
  %110 = getelementptr inbounds nuw %struct.global_State, ptr %109, i32 0, i32 18
  store ptr null, ptr %110, align 8, !tbaa !91
  %111 = load ptr, ptr %10, align 8, !tbaa !4
  %112 = getelementptr inbounds nuw %struct.global_State, ptr %111, i32 0, i32 21
  store ptr null, ptr %112, align 8, !tbaa !92
  %113 = load ptr, ptr %10, align 8, !tbaa !4
  %114 = getelementptr inbounds nuw %struct.global_State, ptr %113, i32 0, i32 20
  store ptr null, ptr %114, align 8, !tbaa !93
  %115 = load ptr, ptr %10, align 8, !tbaa !4
  %116 = getelementptr inbounds nuw %struct.global_State, ptr %115, i32 0, i32 24
  store ptr null, ptr %116, align 8, !tbaa !94
  %117 = load ptr, ptr %10, align 8, !tbaa !4
  %118 = getelementptr inbounds nuw %struct.global_State, ptr %117, i32 0, i32 23
  store ptr null, ptr %118, align 8, !tbaa !95
  %119 = load ptr, ptr %10, align 8, !tbaa !4
  %120 = getelementptr inbounds nuw %struct.global_State, ptr %119, i32 0, i32 22
  store ptr null, ptr %120, align 8, !tbaa !96
  %121 = load ptr, ptr %10, align 8, !tbaa !4
  %122 = getelementptr inbounds nuw %struct.global_State, ptr %121, i32 0, i32 34
  store ptr null, ptr %122, align 8, !tbaa !97
  %123 = load ptr, ptr %10, align 8, !tbaa !4
  %124 = getelementptr inbounds nuw %struct.global_State, ptr %123, i32 0, i32 2
  store i64 1632, ptr %124, align 8, !tbaa !11
  %125 = load ptr, ptr %10, align 8, !tbaa !4
  %126 = getelementptr inbounds nuw %struct.global_State, ptr %125, i32 0, i32 4
  store i64 0, ptr %126, align 8, !tbaa !98
  %127 = load ptr, ptr %10, align 8, !tbaa !4
  %128 = getelementptr inbounds nuw %struct.global_State, ptr %127, i32 0, i32 3
  store i64 0, ptr %128, align 8, !tbaa !21
  call void @llvm.lifetime.start.p0(i64 8, ptr %13) #6
  %129 = load ptr, ptr %10, align 8, !tbaa !4
  %130 = getelementptr inbounds nuw %struct.global_State, ptr %129, i32 0, i32 8
  store ptr %130, ptr %13, align 8, !tbaa !39
  %131 = load ptr, ptr %13, align 8, !tbaa !39
  %132 = getelementptr inbounds nuw %struct.TValue, ptr %131, i32 0, i32 0
  store i64 0, ptr %132, align 8, !tbaa !34
  %133 = load ptr, ptr %13, align 8, !tbaa !39
  %134 = getelementptr inbounds nuw %struct.TValue, ptr %133, i32 0, i32 1
  store i8 3, ptr %134, align 8, !tbaa !41
  call void @llvm.lifetime.end.p0(i64 8, ptr %13) #6
  %135 = call zeroext i8 @luaO_codeparam(i32 noundef 250)
  %136 = load ptr, ptr %10, align 8, !tbaa !4
  %137 = getelementptr inbounds nuw %struct.global_State, ptr %136, i32 0, i32 10
  %138 = getelementptr inbounds [6 x i8], ptr %137, i64 0, i64 3
  store i8 %135, ptr %138, align 1, !tbaa !34
  %139 = call zeroext i8 @luaO_codeparam(i32 noundef 200)
  %140 = load ptr, ptr %10, align 8, !tbaa !4
  %141 = getelementptr inbounds nuw %struct.global_State, ptr %140, i32 0, i32 10
  %142 = getelementptr inbounds [6 x i8], ptr %141, i64 0, i64 4
  store i8 %139, ptr %142, align 4, !tbaa !34
  %143 = call zeroext i8 @luaO_codeparam(i32 noundef 9600)
  %144 = load ptr, ptr %10, align 8, !tbaa !4
  %145 = getelementptr inbounds nuw %struct.global_State, ptr %144, i32 0, i32 10
  %146 = getelementptr inbounds [6 x i8], ptr %145, i64 0, i64 5
  store i8 %143, ptr %146, align 1, !tbaa !34
  %147 = call zeroext i8 @luaO_codeparam(i32 noundef 20)
  %148 = load ptr, ptr %10, align 8, !tbaa !4
  %149 = getelementptr inbounds nuw %struct.global_State, ptr %148, i32 0, i32 10
  %150 = getelementptr inbounds [6 x i8], ptr %149, i64 0, i64 0
  store i8 %147, ptr %150, align 4, !tbaa !34
  %151 = call zeroext i8 @luaO_codeparam(i32 noundef 70)
  %152 = load ptr, ptr %10, align 8, !tbaa !4
  %153 = getelementptr inbounds nuw %struct.global_State, ptr %152, i32 0, i32 10
  %154 = getelementptr inbounds [6 x i8], ptr %153, i64 0, i64 2
  store i8 %151, ptr %154, align 2, !tbaa !34
  %155 = call zeroext i8 @luaO_codeparam(i32 noundef 50)
  %156 = load ptr, ptr %10, align 8, !tbaa !4
  %157 = getelementptr inbounds nuw %struct.global_State, ptr %156, i32 0, i32 10
  %158 = getelementptr inbounds [6 x i8], ptr %157, i64 0, i64 1
  store i8 %155, ptr %158, align 1, !tbaa !34
  store i32 0, ptr %8, align 4, !tbaa !54
  br label %159

159:                                              ; preds = %168, %20
  %160 = load i32, ptr %8, align 4, !tbaa !54
  %161 = icmp slt i32 %160, 9
  br i1 %161, label %162, label %171

162:                                              ; preds = %159
  %163 = load ptr, ptr %10, align 8, !tbaa !4
  %164 = getelementptr inbounds nuw %struct.global_State, ptr %163, i32 0, i32 39
  %165 = load i32, ptr %8, align 4, !tbaa !54
  %166 = sext i32 %165 to i64
  %167 = getelementptr inbounds [9 x ptr], ptr %164, i64 0, i64 %166
  store ptr null, ptr %167, align 8, !tbaa !99
  br label %168

168:                                              ; preds = %162
  %169 = load i32, ptr %8, align 4, !tbaa !54
  %170 = add nsw i32 %169, 1
  store i32 %170, ptr %8, align 4, !tbaa !54
  br label %159

171:                                              ; preds = %159
  %172 = load ptr, ptr %9, align 8, !tbaa !22
  %173 = call i32 @luaD_rawrunprotected(ptr noundef %172, ptr noundef @f_luaopen, ptr noundef null)
  %174 = icmp ne i32 %173, 0
  br i1 %174, label %175, label %177

175:                                              ; preds = %171
  %176 = load ptr, ptr %9, align 8, !tbaa !22
  call void @close_state(ptr noundef %176)
  store ptr null, ptr %9, align 8, !tbaa !22
  br label %177

177:                                              ; preds = %175, %171
  %178 = load ptr, ptr %9, align 8, !tbaa !22
  store ptr %178, ptr %4, align 8
  store i32 1, ptr %12, align 4
  br label %179

179:                                              ; preds = %177, %19
  call void @llvm.lifetime.end.p0(i64 8, ptr %11) #6
  call void @llvm.lifetime.end.p0(i64 8, ptr %10) #6
  call void @llvm.lifetime.end.p0(i64 8, ptr %9) #6
  call void @llvm.lifetime.end.p0(i64 4, ptr %8) #6
  %180 = load ptr, ptr %4, align 8
  ret ptr %180
}