; Function Attrs: nounwind uwtable
define dso_local ptr @lua_newstate(ptr noundef %0, ptr noundef %1, i32 noundef %2) local_unnamed_addr #2 {
  %4 = tail call ptr %0(ptr noundef %1, ptr noundef null, i64 noundef 8, i64 noundef 1632) #8
  %5 = icmp eq ptr %4, null
  br i1 %5, label %61, label %6

6:                                                ; preds = %3
  %7 = getelementptr inbounds nuw i8, ptr %4, i64 8
  %8 = getelementptr inbounds nuw i8, ptr %4, i64 216
  %9 = getelementptr inbounds nuw i8, ptr %4, i64 16
  store i8 8, ptr %9, align 8, !tbaa !49
  %10 = getelementptr inbounds nuw i8, ptr %4, i64 322
  store i8 8, ptr %10, align 2, !tbaa !50
  %11 = getelementptr inbounds nuw i8, ptr %4, i64 17
  store i8 8, ptr %11, align 1, !tbaa !51
  %12 = getelementptr inbounds nuw i8, ptr %4, i64 32
  store ptr %8, ptr %12, align 8, !tbaa !34
  %13 = getelementptr inbounds nuw i8, ptr %4, i64 56
  store ptr null, ptr %13, align 8, !tbaa !30
  %14 = getelementptr inbounds nuw i8, ptr %4, i64 40
  store ptr null, ptr %14, align 8, !tbaa !19
  %15 = getelementptr inbounds nuw i8, ptr %4, i64 20
  store i16 0, ptr %15, align 4, !tbaa !31
  %16 = getelementptr inbounds nuw i8, ptr %4, i64 88
  store ptr %7, ptr %16, align 8, !tbaa !36
  %17 = getelementptr inbounds nuw i8, ptr %4, i64 184
  %18 = getelementptr inbounds nuw i8, ptr %4, i64 96
  store ptr null, ptr %18, align 8, !tbaa !37
  %19 = getelementptr inbounds nuw i8, ptr %4, i64 168
  store volatile ptr null, ptr %19, align 8, !tbaa !38
  %20 = getelementptr inbounds nuw i8, ptr %4, i64 200
  store volatile i32 0, ptr %20, align 8, !tbaa !39
  %21 = getelementptr inbounds nuw i8, ptr %4, i64 192
  store i32 0, ptr %21, align 8, !tbaa !40
  %22 = getelementptr inbounds nuw i8, ptr %4, i64 19
  store i8 1, ptr %22, align 1, !tbaa !41
  %23 = getelementptr inbounds nuw i8, ptr %4, i64 196
  store i32 0, ptr %23, align 4, !tbaa !46
  %24 = getelementptr inbounds nuw i8, ptr %4, i64 64
  store ptr null, ptr %24, align 8, !tbaa !42
  %25 = getelementptr inbounds nuw i8, ptr %4, i64 18
  store i8 0, ptr %25, align 2, !tbaa !43
  %26 = getelementptr inbounds nuw i8, ptr %4, i64 176
  store i64 0, ptr %26, align 8, !tbaa !44
  %27 = getelementptr inbounds nuw i8, ptr %4, i64 188
  store i32 0, ptr %27, align 4, !tbaa !45
  %28 = getelementptr inbounds nuw i8, ptr %4, i64 328
  store ptr %7, ptr %28, align 8, !tbaa !52
  store ptr null, ptr %7, align 8, !tbaa !53
  store i32 65536, ptr %17, align 8, !tbaa !32
  store ptr %0, ptr %8, align 8, !tbaa !54
  %29 = getelementptr inbounds nuw i8, ptr %4, i64 224
  store ptr %1, ptr %29, align 8, !tbaa !55
  %30 = getelementptr inbounds nuw i8, ptr %4, i64 1616
  %31 = getelementptr inbounds nuw i8, ptr %4, i64 480
  tail call void @llvm.memset.p0.i64(ptr noundef nonnull align 8 dereferenceable(16) %30, i8 0, i64 16, i1 false)
  store ptr %7, ptr %31, align 8, !tbaa !47
  %32 = getelementptr inbounds nuw i8, ptr %4, i64 312
  store i32 %2, ptr %32, align 8, !tbaa !56
  %33 = getelementptr inbounds nuw i8, ptr %4, i64 326
  store i8 2, ptr %33, align 2, !tbaa !57
  %34 = getelementptr inbounds nuw i8, ptr %4, i64 264
  %35 = getelementptr inbounds nuw i8, ptr %4, i64 288
  store i8 0, ptr %35, align 8, !tbaa !58
  %36 = getelementptr inbounds nuw i8, ptr %4, i64 472
  store ptr null, ptr %36, align 8, !tbaa !59
  %37 = getelementptr inbounds nuw i8, ptr %4, i64 323
  tail call void @llvm.memset.p0.i64(ptr noundef nonnull align 8 dereferenceable(16) %34, i8 0, i64 16, i1 false)
  store i8 8, ptr %37, align 1, !tbaa !60
  %38 = getelementptr inbounds nuw i8, ptr %4, i64 324
  store i8 0, ptr %38, align 4, !tbaa !61
  %39 = getelementptr inbounds nuw i8, ptr %4, i64 325
  store i8 0, ptr %39, align 1, !tbaa !62
  %40 = getelementptr inbounds nuw i8, ptr %4, i64 327
  store i8 0, ptr %40, align 1, !tbaa !63
  %41 = getelementptr inbounds nuw i8, ptr %4, i64 336
  %42 = getelementptr inbounds nuw i8, ptr %4, i64 232
  tail call void @llvm.memset.p0.i64(ptr noundef nonnull align 8 dereferenceable(136) %41, i8 0, i64 136, i1 false)
  store i64 1632, ptr %42, align 8, !tbaa !4
  %43 = getelementptr inbounds nuw i8, ptr %4, i64 240
  %44 = getelementptr inbounds nuw i8, ptr %4, i64 296
  store i64 0, ptr %44, align 8, !tbaa !30
  %45 = getelementptr inbounds nuw i8, ptr %4, i64 304
  tail call void @llvm.memset.p0.i64(ptr noundef nonnull align 8 dereferenceable(16) %43, i8 0, i64 16, i1 false)
  store i8 3, ptr %45, align 8, !tbaa !35
  %46 = tail call zeroext i8 @luaO_codeparam(i32 noundef 250) #8
  %47 = getelementptr inbounds nuw i8, ptr %4, i64 316
  %48 = getelementptr inbounds nuw i8, ptr %4, i64 319
  store i8 %46, ptr %48, align 1, !tbaa !30
  %49 = tail call zeroext i8 @luaO_codeparam(i32 noundef 200) #8
  %50 = getelementptr inbounds nuw i8, ptr %4, i64 320
  store i8 %49, ptr %50, align 4, !tbaa !30
  %51 = tail call zeroext i8 @luaO_codeparam(i32 noundef 9600) #8
  %52 = getelementptr inbounds nuw i8, ptr %4, i64 321
  store i8 %51, ptr %52, align 1, !tbaa !30
  %53 = tail call zeroext i8 @luaO_codeparam(i32 noundef 20) #8
  store i8 %53, ptr %47, align 4, !tbaa !30
  %54 = tail call zeroext i8 @luaO_codeparam(i32 noundef 70) #8
  %55 = getelementptr inbounds nuw i8, ptr %4, i64 318
  store i8 %54, ptr %55, align 2, !tbaa !30
  %56 = tail call zeroext i8 @luaO_codeparam(i32 noundef 50) #8
  %57 = getelementptr inbounds nuw i8, ptr %4, i64 317
  store i8 %56, ptr %57, align 1, !tbaa !30
  %58 = getelementptr inbounds nuw i8, ptr %4, i64 696
  tail call void @llvm.memset.p0.i64(ptr noundef nonnull align 8 dereferenceable(72) %58, i8 0, i64 72, i1 false), !tbaa !64
  %59 = tail call i32 @luaD_rawrunprotected(ptr noundef nonnull %7, ptr noundef nonnull @f_luaopen, ptr noundef null) #8
  %.not = icmp eq i32 %59, 0
  br i1 %.not, label %61, label %60

60:                                               ; preds = %6
  tail call fastcc void @close_state(ptr noundef nonnull %7)
  br label %61

61:                                               ; preds = %6, %60, %3
  %.0 = phi ptr [ null, %3 ], [ null, %60 ], [ %7, %6 ]
  ret ptr %.0
}